; Function Attrs: mustprogress uwtable
define internal void @_ZN12_GLOBAL__N_112TraceMonitor14notify_connectEPN5Yosys5RTLIL6ModuleERKSt4pairINS2_7SigSpecES6_E(ptr nonnull readnone align 8 captures(none) %0, ptr noundef %1, ptr noundef nonnull align 8 dereferenceable(112) %2) unnamed_addr #5 align 2 {
  %4 = getelementptr inbounds nuw i8, ptr %1, i64 304
  %5 = tail call noundef ptr @_ZN5Yosys6log_idERKNS_5RTLIL8IdStringE(ptr noundef nonnull align 4 dereferenceable(4) %4)
  %6 = tail call noundef ptr @_ZN5Yosys10log_signalERKNS_5RTLIL7SigSpecEb(ptr noundef nonnull align 8 dereferenceable(56) %2, i1 noundef zeroext true)
  %7 = getelementptr inbounds nuw i8, ptr %2, i64 56
  %8 = tail call noundef ptr @_ZN5Yosys10log_signalERKNS_5RTLIL7SigSpecEb(ptr noundef nonnull align 8 dereferenceable(56) %7, i1 noundef zeroext true)
  tail call void (ptr, ...) @_ZN5Yosys3logEPKcz(ptr noundef nonnull @.str.12, ptr noundef %5, ptr noundef %6, ptr noundef %8)
  ret void
}